target datalayout = "e-m:e-p270:32:32-p271:32:32-p272:64:64-i64:64-i128:128-f80:128-n8:16:32:64-S128"
target triple = "x86_64-pc-linux-gnu"

@g_tres_count = external global i32, align 4

; Function Attrs: nounwind uwtable
define internal zeroext i1 @_validate_tres_limits_for_qos(ptr noundef %0, ptr noundef %1, i64 noundef %2, ptr noundef %3, ptr noundef %4, ptr noundef %5, ptr noundef %6, ptr noundef %7, i1 noundef zeroext %8, i1 noundef zeroext %9) #0 {
  %11 = alloca i1, align 1
  %12 = alloca ptr, align 8
  %13 = alloca ptr, align 8
  %14 = alloca i64, align 8
  %15 = alloca ptr, align 8
  %16 = alloca ptr, align 8
  %17 = alloca ptr, align 8
  %18 = alloca ptr, align 8
  %19 = alloca ptr, align 8
  %20 = alloca i8, align 1
  %21 = alloca i8, align 1
  %22 = alloca i64, align 8
  %23 = alloca i64, align 8
  %24 = alloca i32, align 4
  %25 = alloca i64, align 8
  %26 = alloca i32, align 4
  store ptr %0, ptr %12, align 8
  store ptr %1, ptr %13, align 8
  store i64 %2, ptr %14, align 8
  store ptr %3, ptr %15, align 8
  store ptr %4, ptr %16, align 8
  store ptr %5, ptr %17, align 8
  store ptr %6, ptr %18, align 8
  store ptr %7, ptr %19, align 8
  %27 = zext i1 %8 to i8
  store i8 %27, ptr %20, align 1
  %28 = zext i1 %9 to i8
  store i8 %28, ptr %21, align 1
  call void @llvm.lifetime.start.p0(i64 8, ptr %22) #8
  call void @llvm.lifetime.start.p0(i64 8, ptr %23) #8
  call void @llvm.lifetime.start.p0(i64 4, ptr %24) #8
  call void @llvm.lifetime.start.p0(i64 8, ptr %25) #8
  %29 = load i8, ptr %20, align 1, !range !8, !noundef !9
  %30 = trunc i8 %29 to i1
  br i1 %30, label %32, label %31

31:                                               ; preds = %10
  store i1 true, ptr %11, align 1
  store i32 1, ptr %26, align 4
  br label %229

32:                                               ; preds = %10
  store i32 0, ptr %24, align 4
  br label %33

33:                                               ; preds = %225, %32
  %34 = load i32, ptr %24, align 4
  %35 = load i32, ptr @g_tres_count, align 4
  %36 = icmp ult i32 %34, %35
  br i1 %36, label %37, label %228

37:                                               ; preds = %33
  %38 = load i32, ptr %24, align 4
  %39 = load ptr, ptr %12, align 8
  store i32 %38, ptr %39, align 4
  %40 = load ptr, ptr %15, align 8
  %41 = icmp ne ptr %40, null
  br i1 %41, label %42, label %93

42:                                               ; preds = %37
  %43 = load ptr, ptr %15, align 8
  %44 = load i32, ptr %24, align 4
  %45 = sext i32 %44 to i64
  %46 = getelementptr inbounds i64, ptr %43, i64 %45
  %47 = load i64, ptr %46, align 8
  %48 = load ptr, ptr %16, align 8
  %49 = load i32, ptr %24, align 4
  %50 = sext i32 %49 to i64
  %51 = getelementptr inbounds i64, ptr %48, i64 %50
  %52 = load i64, ptr %51, align 8
  %53 = icmp ult i64 %47, %52
  br i1 %53, label %54, label %60

54:                                               ; preds = %42
  %55 = load ptr, ptr %15, align 8
  %56 = load i32, ptr %24, align 4
  %57 = sext i32 %56 to i64
  %58 = getelementptr inbounds i64, ptr %55, i64 %57
  %59 = load i64, ptr %58, align 8
  br label %66

60:                                               ; preds = %42
  %61 = load ptr, ptr %16, align 8
  %62 = load i32, ptr %24, align 4
  %63 = sext i32 %62 to i64
  %64 = getelementptr inbounds i64, ptr %61, i64 %63
  %65 = load i64, ptr %64, align 8
  br label %66

66:                                               ; preds = %60, %54
  %67 = phi i64 [ %59, %54 ], [ %65, %60 ]
  store i64 %67, ptr %22, align 8
  %68 = load ptr, ptr %17, align 8
  %69 = load i32, ptr %24, align 4
  %70 = sext i32 %69 to i64
  %71 = getelementptr inbounds i64, ptr %68, i64 %70
  %72 = load i64, ptr %71, align 8
  %73 = load ptr, ptr %18, align 8
  %74 = load i32, ptr %24, align 4
  %75 = sext i32 %74 to i64
  %76 = getelementptr inbounds i64, ptr %73, i64 %75
  %77 = load i64, ptr %76, align 8
  %78 = icmp ult i64 %72, %77
  br i1 %78, label %79, label %85

79:                                               ; preds = %66
  %80 = load ptr, ptr %17, align 8
  %81 = load i32, ptr %24, align 4
  %82 = sext i32 %81 to i64
  %83 = getelementptr inbounds i64, ptr %80, i64 %82
  %84 = load i64, ptr %83, align 8
  br label %91

85:                                               ; preds = %66
  %86 = load ptr, ptr %18, align 8
  %87 = load i32, ptr %24, align 4
  %88 = sext i32 %87 to i64
  %89 = getelementptr inbounds i64, ptr %86, i64 %88
  %90 = load i64, ptr %89, align 8
  br label %91

91:                                               ; preds = %85, %79
  %92 = phi i64 [ %84, %79 ], [ %90, %85 ]
  store i64 %92, ptr %23, align 8
  br label %104

93:                                               ; preds = %37
  %94 = load ptr, ptr %16, align 8
  %95 = load i32, ptr %24, align 4
  %96 = sext i32 %95 to i64
  %97 = getelementptr inbounds i64, ptr %94, i64 %96
  %98 = load i64, ptr %97, align 8
  store i64 %98, ptr %22, align 8
  %99 = load ptr, ptr %18, align 8
  %100 = load i32, ptr %24, align 4
  %101 = sext i32 %100 to i64
  %102 = getelementptr inbounds i64, ptr %99, i64 %101
  %103 = load i64, ptr %102, align 8
  store i64 %103, ptr %23, align 8
  br label %104

104:                                              ; preds = %93, %91
  %105 = load ptr, ptr %19, align 8
  %106 = load i32, ptr %24, align 4
  %107 = sext i32 %106 to i64
  %108 = getelementptr inbounds i16, ptr %105, i64 %107
  %109 = load i16, ptr %108, align 2
  %110 = zext i16 %109 to i32
  %111 = icmp eq i32 %110, 65535
  br i1 %111, label %132, label %112

112:                                              ; preds = %104
  %113 = load i64, ptr %23, align 8
  %114 = icmp ne i64 %113, -1
  br i1 %114, label %132, label %115

115:                                              ; preds = %112
  %116 = load i64, ptr %22, align 8
  %117 = icmp eq i64 %116, -1
  br i1 %117, label %132, label %118

118:                                              ; preds = %115
  %119 = load ptr, ptr %13, align 8
  %120 = load i32, ptr %24, align 4
  %121 = sext i32 %120 to i64
  %122 = getelementptr inbounds i64, ptr %119, i64 %121
  %123 = load i64, ptr %122, align 8
  %124 = icmp ne i64 %123, 0
  br i1 %124, label %125, label %133

125:                                              ; preds = %118
  %126 = load ptr, ptr %13, align 8
  %127 = load i32, ptr %24, align 4
  %128 = sext i32 %127 to i64
  %129 = getelementptr inbounds i64, ptr %126, i64 %128
  %130 = load i64, ptr %129, align 8
  %131 = icmp eq i64 %130, -2
  br i1 %131, label %132, label %133

132:                                              ; preds = %125, %115, %112, %104
  br label %225

133:                                              ; preds = %125, %118
  %134 = load ptr, ptr %16, align 8
  %135 = load i32, ptr %24, align 4
  %136 = sext i32 %135 to i64
  %137 = getelementptr inbounds i64, ptr %134, i64 %136
  %138 = load i64, ptr %137, align 8
  %139 = load ptr, ptr %18, align 8
  %140 = load i32, ptr %24, align 4
  %141 = sext i32 %140 to i64
  %142 = getelementptr inbounds i64, ptr %139, i64 %141
  store i64 %138, ptr %142, align 8
  %143 = load ptr, ptr %13, align 8
  %144 = load i32, ptr %24, align 4
  %145 = sext i32 %144 to i64
  %146 = getelementptr inbounds i64, ptr %143, i64 %145
  %147 = load i64, ptr %146, align 8
  store i64 %147, ptr %25, align 8
  %148 = load i64, ptr %14, align 8
  %149 = icmp ne i64 %148, 0
  br i1 %149, label %150, label %154

150:                                              ; preds = %133
  %151 = load i64, ptr %14, align 8
  %152 = load i64, ptr %25, align 8
  %153 = udiv i64 %152, %151
  store i64 %153, ptr %25, align 8
  br label %154

154:                                              ; preds = %150, %133
  %155 = load ptr, ptr %17, align 8
  %156 = icmp ne ptr %155, null
  br i1 %156, label %157, label %201

157:                                              ; preds = %154
  %158 = load ptr, ptr %15, align 8
  %159 = icmp ne ptr %158, null
  br i1 %159, label %160, label %201

160:                                              ; preds = %157
  %161 = load ptr, ptr %17, align 8
  %162 = load i32, ptr %24, align 4
  %163 = sext i32 %162 to i64
  %164 = getelementptr inbounds i64, ptr %161, i64 %163
  %165 = load i64, ptr %164, align 8
  %166 = icmp eq i64 %165, -1
  br i1 %166, label %167, label %177

167:                                              ; preds = %160
  %168 = load ptr, ptr %15, align 8
  %169 = load i32, ptr %24, align 4
  %170 = sext i32 %169 to i64
  %171 = getelementptr inbounds i64, ptr %168, i64 %170
  %172 = load i64, ptr %171, align 8
  %173 = load ptr, ptr %17, align 8
  %174 = load i32, ptr %24, align 4
  %175 = sext i32 %174 to i64
  %176 = getelementptr inbounds i64, ptr %173, i64 %175
  store i64 %172, ptr %176, align 8
  br label %177

177:                                              ; preds = %167, %160
  %178 = load i8, ptr %21, align 1, !range !8, !noundef !9
  %179 = trunc i8 %178 to i1
  br i1 %179, label %180, label %190

180:                                              ; preds = %177
  %181 = load i64, ptr %25, align 8
  %182 = load ptr, ptr %15, align 8
  %183 = load i32, ptr %24, align 4
  %184 = sext i32 %183 to i64
  %185 = getelementptr inbounds i64, ptr %182, i64 %184
  %186 = load i64, ptr %185, align 8
  %187 = icmp ugt i64 %181, %186
  br i1 %187, label %188, label %189

188:                                              ; preds = %180
  store i1 false, ptr %11, align 1
  store i32 1, ptr %26, align 4
  br label %229

189:                                              ; preds = %180
  br label %200

190:                                              ; preds = %177
  %191 = load i64, ptr %25, align 8
  %192 = load ptr, ptr %15, align 8
  %193 = load i32, ptr %24, align 4
  %194 = sext i32 %193 to i64
  %195 = getelementptr inbounds i64, ptr %192, i64 %194
  %196 = load i64, ptr %195, align 8
  %197 = icmp ult i64 %191, %196
  br i1 %197, label %198, label %199

198:                                              ; preds = %190
  store i1 false, ptr %11, align 1
  store i32 1, ptr %26, align 4
  br label %229

199:                                              ; preds = %190
  br label %200

200:                                              ; preds = %199, %189
  br label %201

201:                                              ; preds = %200, %157, %154
  %202 = load i8, ptr %21, align 1, !range !8, !noundef !9
  %203 = trunc i8 %202 to i1
  br i1 %203, label %204, label %214

204:                                              ; preds = %201
  %205 = load i64, ptr %25, align 8
  %206 = load ptr, ptr %16, align 8
  %207 = load i32, ptr %24, align 4
  %208 = sext i32 %207 to i64
  %209 = getelementptr inbounds i64, ptr %206, i64 %208
  %210 = load i64, ptr %209, align 8
  %211 = icmp ugt i64 %205, %210
  br i1 %211, label %212, label %213

212:                                              ; preds = %204
  store i1 false, ptr %11, align 1
  store i32 1, ptr %26, align 4
  br label %229

213:                                              ; preds = %204
  br label %224

214:                                              ; preds = %201
  %215 = load i64, ptr %25, align 8
  %216 = load ptr, ptr %16, align 8
  %217 = load i32, ptr %24, align 4
  %218 = sext i32 %217 to i64
  %219 = getelementptr inbounds i64, ptr %216, i64 %218
  %220 = load i64, ptr %219, align 8
  %221 = icmp ult i64 %215, %220
  br i1 %221, label %222, label %223

222:                                              ; preds = %214
  store i1 false, ptr %11, align 1
  store i32 1, ptr %26, align 4
  br label %229

223:                                              ; preds = %214
  br label %224

224:                                              ; preds = %223, %213
  br label %225

225:                                              ; preds = %224, %132
  %226 = load i32, ptr %24, align 4
  %227 = add nsw i32 %226, 1
  store i32 %227, ptr %24, align 4
  br label %33, !llvm.loop !44

228:                                              ; preds = %33
  store i1 true, ptr %11, align 1
  store i32 1, ptr %26, align 4
  br label %229

229:                                              ; preds = %228, %222, %212, %198, %188, %31
  call void @llvm.lifetime.end.p0(i64 8, ptr %25) #8
  call void @llvm.lifetime.end.p0(i64 4, ptr %24) #8
  call void @llvm.lifetime.end.p0(i64 8, ptr %23) #8
  call void @llvm.lifetime.end.p0(i64 8, ptr %22) #8
  %230 = load i1, ptr %11, align 1
  ret i1 %230
}