; Function Attrs: nofree norecurse nosync nounwind memory(read, argmem: readwrite, inaccessiblemem: none) uwtable
define internal fastcc noundef zeroext i1 @_validate_tres_limits_for_qos(ptr noundef nonnull writeonly captures(none) %0, ptr noundef readonly captures(none) %1, i64 noundef %2, ptr noundef readonly captures(address_is_null) %3, ptr noundef readonly captures(none) %4, ptr noundef captures(address_is_null) %5, ptr noundef captures(none) %6, ptr noundef readonly captures(none) %7, i1 noundef zeroext %8, i1 noundef zeroext %9) unnamed_addr #7 {
  %11 = load i32, ptr @g_tres_count, align 4
  %12 = icmp ne i32 %11, 0
  %or.cond121 = select i1 %8, i1 %12, i1 false
  br i1 %or.cond121, label %.lr.ph, label %.loopexit

.lr.ph:                                           ; preds = %10
  %13 = icmp ne ptr %3, null
  %.not82 = icmp eq i64 %2, 0
  %14 = icmp ne ptr %5, null
  %or.cond5 = and i1 %13, %14
  br i1 %or.cond5, label %.lr.ph.split.us.preheader, label %.lr.ph.split

.lr.ph.split.us.preheader:                        ; preds = %.lr.ph, %57
  %indvars.iv135 = phi i64 [ %indvars.iv.next136, %57 ], [ 0, %.lr.ph ]
  %15 = trunc nuw nsw i64 %indvars.iv135 to i32
  store i32 %15, ptr %0, align 4
  %16 = getelementptr inbounds nuw i64, ptr %4, i64 %indvars.iv135
  %17 = load i64, ptr %16, align 8
  %18 = getelementptr inbounds nuw i64, ptr %5, i64 %indvars.iv135
  %19 = load i64, ptr %18, align 8
  %20 = getelementptr inbounds nuw i64, ptr %6, i64 %indvars.iv135
  %21 = load i64, ptr %20, align 8
  %22 = tail call i64 @llvm.umin.i64(i64 %19, i64 %21)
  %23 = getelementptr inbounds nuw i64, ptr %3, i64 %indvars.iv135
  %24 = load i64, ptr %23, align 8
  %..us = tail call i64 @llvm.umin.i64(i64 %24, i64 %17)
  %25 = getelementptr inbounds nuw i16, ptr %7, i64 %indvars.iv135
  %26 = load i16, ptr %25, align 2
  %27 = icmp eq i16 %26, -1
  %28 = icmp ne i64 %22, -1
  %or.cond.us = select i1 %27, i1 true, i1 %28
  %29 = icmp eq i64 %..us, -1
  %or.cond3.us = select i1 %or.cond.us, i1 true, i1 %29
  br i1 %or.cond3.us, label %57, label %30

30:                                               ; preds = %.lr.ph.split.us.preheader
  %31 = getelementptr inbounds nuw i64, ptr %1, i64 %indvars.iv135
  %32 = load i64, ptr %31, align 8
  %cond.us = icmp eq i64 %32, -2
  br i1 %cond.us, label %57, label %33

33:                                               ; preds = %30
  %34 = getelementptr inbounds nuw i64, ptr %4, i64 %indvars.iv135
  %35 = getelementptr inbounds nuw i64, ptr %6, i64 %indvars.iv135
  store i64 %17, ptr %35, align 8
  %36 = load i64, ptr %31, align 8
  br i1 %.not82, label %39, label %37

37:                                               ; preds = %33
  %38 = udiv i64 %36, %2
  br label %39

39:                                               ; preds = %37, %33
  %.0.us = phi i64 [ %38, %37 ], [ %36, %33 ]
  %40 = getelementptr inbounds nuw i64, ptr %5, i64 %indvars.iv135
  %41 = load i64, ptr %40, align 8
  %42 = icmp eq i64 %41, -1
  br i1 %42, label %43, label %46

43:                                               ; preds = %39
  %44 = getelementptr inbounds nuw i64, ptr %3, i64 %indvars.iv135
  %45 = load i64, ptr %44, align 8
  store i64 %45, ptr %40, align 8
  br label %46

46:                                               ; preds = %43, %39
  %47 = getelementptr inbounds nuw i64, ptr %3, i64 %indvars.iv135
  %48 = load i64, ptr %47, align 8
  br i1 %9, label %53, label %49

49:                                               ; preds = %46
  %50 = icmp ult i64 %.0.us, %48
  br i1 %50, label %.loopexit, label %.thread83.us

.thread83.us:                                     ; preds = %49
  %51 = load i64, ptr %34, align 8
  %52 = icmp ult i64 %.0.us, %51
  br i1 %52, label %.loopexit, label %57

53:                                               ; preds = %46
  %54 = icmp ugt i64 %.0.us, %48
  br i1 %54, label %.loopexit, label %.thread.us

.thread.us:                                       ; preds = %53
  %55 = load i64, ptr %34, align 8
  %56 = icmp ugt i64 %.0.us, %55
  br i1 %56, label %.loopexit, label %57

57:                                               ; preds = %.thread.us, %.thread83.us, %30, %.lr.ph.split.us.preheader
  %indvars.iv.next136 = add nuw nsw i64 %indvars.iv135, 1
  %58 = load i32, ptr @g_tres_count, align 4
  %59 = zext i32 %58 to i64
  %60 = icmp samesign ult i64 %indvars.iv.next136, %59
  br i1 %60, label %.lr.ph.split.us.preheader, label %.loopexit, !llvm.loop !34

.lr.ph.split:                                     ; preds = %.lr.ph
  br i1 %13, label %.lr.ph.split.split.us, label %.lr.ph.split.split

.lr.ph.split.split.us:                            ; preds = %.lr.ph.split, %87
  %indvars.iv132 = phi i64 [ %indvars.iv.next133, %87 ], [ 0, %.lr.ph.split ]
  %61 = trunc nuw nsw i64 %indvars.iv132 to i32
  store i32 %61, ptr %0, align 4
  %62 = getelementptr inbounds nuw i64, ptr %3, i64 %indvars.iv132
  %63 = load i64, ptr %62, align 8
  %64 = getelementptr inbounds nuw i64, ptr %4, i64 %indvars.iv132
  %65 = load i64, ptr %64, align 8
  %..us96 = tail call i64 @llvm.umin.i64(i64 %63, i64 %65)
  %66 = getelementptr inbounds nuw i64, ptr %5, i64 %indvars.iv132
  %67 = load i64, ptr %66, align 8
  %68 = getelementptr inbounds nuw i64, ptr %6, i64 %indvars.iv132
  %69 = load i64, ptr %68, align 8
  %70 = tail call i64 @llvm.umin.i64(i64 %67, i64 %69)
  %71 = getelementptr inbounds nuw i16, ptr %7, i64 %indvars.iv132
  %72 = load i16, ptr %71, align 2
  %73 = icmp eq i16 %72, -1
  %74 = icmp ne i64 %70, -1
  %or.cond.us99 = select i1 %73, i1 true, i1 %74
  %75 = icmp eq i64 %..us96, -1
  %or.cond3.us100 = select i1 %or.cond.us99, i1 true, i1 %75
  br i1 %or.cond3.us100, label %87, label %76

76:                                               ; preds = %.lr.ph.split.split.us
  %77 = getelementptr inbounds nuw i64, ptr %1, i64 %indvars.iv132
  %78 = load i64, ptr %77, align 8
  %cond.us101 = icmp eq i64 %78, -2
  br i1 %cond.us101, label %87, label %79

79:                                               ; preds = %76
  store i64 %65, ptr %68, align 8
  %80 = load i64, ptr %77, align 8
  br i1 %.not82, label %83, label %81

81:                                               ; preds = %79
  %82 = udiv i64 %80, %2
  br label %83

83:                                               ; preds = %81, %79
  %.0.us102 = phi i64 [ %82, %81 ], [ %80, %79 ]
  %84 = load i64, ptr %64, align 8
  br i1 %9, label %.thread.us104, label %.thread83.us103

.thread83.us103:                                  ; preds = %83
  %85 = icmp ult i64 %.0.us102, %84
  br i1 %85, label %.loopexit, label %87

.thread.us104:                                    ; preds = %83
  %86 = icmp ugt i64 %.0.us102, %84
  br i1 %86, label %.loopexit, label %87

87:                                               ; preds = %.thread.us104, %.thread83.us103, %76, %.lr.ph.split.split.us
  %indvars.iv.next133 = add nuw nsw i64 %indvars.iv132, 1
  %88 = load i32, ptr @g_tres_count, align 4
  %89 = zext i32 %88 to i64
  %90 = icmp samesign ult i64 %indvars.iv.next133, %89
  br i1 %90, label %.lr.ph.split.split.us, label %.loopexit, !llvm.loop !34

.lr.ph.split.split:                               ; preds = %.lr.ph.split
  br i1 %9, label %.lr.ph.split.split.split.us, label %.lr.ph.split.split.split

.lr.ph.split.split.split.us:                      ; preds = %.lr.ph.split.split, %110
  %indvars.iv129 = phi i64 [ %indvars.iv.next130, %110 ], [ 0, %.lr.ph.split.split ]
  %91 = trunc nuw nsw i64 %indvars.iv129 to i32
  store i32 %91, ptr %0, align 4
  %92 = getelementptr inbounds nuw i64, ptr %4, i64 %indvars.iv129
  %93 = load i64, ptr %92, align 8
  %94 = getelementptr inbounds nuw i64, ptr %6, i64 %indvars.iv129
  %95 = load i64, ptr %94, align 8
  %96 = getelementptr inbounds nuw i16, ptr %7, i64 %indvars.iv129
  %97 = load i16, ptr %96, align 2
  %98 = icmp eq i16 %97, -1
  %99 = icmp ne i64 %95, -1
  %or.cond.us111 = select i1 %98, i1 true, i1 %99
  %100 = icmp eq i64 %93, -1
  %or.cond3.us112 = select i1 %or.cond.us111, i1 true, i1 %100
  br i1 %or.cond3.us112, label %110, label %101

101:                                              ; preds = %.lr.ph.split.split.split.us
  %102 = getelementptr inbounds nuw i64, ptr %1, i64 %indvars.iv129
  %103 = load i64, ptr %102, align 8
  %cond.us113 = icmp eq i64 %103, -2
  br i1 %cond.us113, label %110, label %104

104:                                              ; preds = %101
  store i64 %93, ptr %94, align 8
  %105 = load i64, ptr %102, align 8
  br i1 %.not82, label %.thread.us115, label %106

106:                                              ; preds = %104
  %107 = udiv i64 %105, %2
  br label %.thread.us115

.thread.us115:                                    ; preds = %106, %104
  %.0.us114 = phi i64 [ %107, %106 ], [ %105, %104 ]
  %108 = load i64, ptr %92, align 8
  %109 = icmp ugt i64 %.0.us114, %108
  br i1 %109, label %.loopexit, label %110

110:                                              ; preds = %.thread.us115, %101, %.lr.ph.split.split.split.us
  %indvars.iv.next130 = add nuw nsw i64 %indvars.iv129, 1
  %111 = load i32, ptr @g_tres_count, align 4
  %112 = zext i32 %111 to i64
  %113 = icmp samesign ult i64 %indvars.iv.next130, %112
  br i1 %113, label %.lr.ph.split.split.split.us, label %.loopexit, !llvm.loop !34

.lr.ph.split.split.split:                         ; preds = %.lr.ph.split.split, %133
  %indvars.iv = phi i64 [ %indvars.iv.next, %133 ], [ 0, %.lr.ph.split.split ]
  %114 = trunc nuw nsw i64 %indvars.iv to i32
  store i32 %114, ptr %0, align 4
  %115 = getelementptr inbounds nuw i64, ptr %4, i64 %indvars.iv
  %116 = load i64, ptr %115, align 8
  %117 = getelementptr inbounds nuw i64, ptr %6, i64 %indvars.iv
  %118 = load i64, ptr %117, align 8
  %119 = getelementptr inbounds nuw i16, ptr %7, i64 %indvars.iv
  %120 = load i16, ptr %119, align 2
  %121 = icmp eq i16 %120, -1
  %122 = icmp ne i64 %118, -1
  %or.cond = select i1 %121, i1 true, i1 %122
  %123 = icmp eq i64 %116, -1
  %or.cond3 = select i1 %or.cond, i1 true, i1 %123
  br i1 %or.cond3, label %133, label %124

124:                                              ; preds = %.lr.ph.split.split.split
  %125 = getelementptr inbounds nuw i64, ptr %1, i64 %indvars.iv
  %126 = load i64, ptr %125, align 8
  %cond = icmp eq i64 %126, -2
  br i1 %cond, label %133, label %127

127:                                              ; preds = %124
  store i64 %116, ptr %117, align 8
  %128 = load i64, ptr %125, align 8
  br i1 %.not82, label %.thread83, label %129

129:                                              ; preds = %127
  %130 = udiv i64 %128, %2
  br label %.thread83

.thread83:                                        ; preds = %129, %127
  %.0 = phi i64 [ %130, %129 ], [ %128, %127 ]
  %131 = load i64, ptr %115, align 8
  %132 = icmp ult i64 %.0, %131
  br i1 %132, label %.loopexit, label %133

133:                                              ; preds = %124, %.thread83, %.lr.ph.split.split.split
  %indvars.iv.next = add nuw nsw i64 %indvars.iv, 1
  %134 = load i32, ptr @g_tres_count, align 4
  %135 = zext i32 %134 to i64
  %136 = icmp samesign ult i64 %indvars.iv.next, %135
  br i1 %136, label %.lr.ph.split.split.split, label %.loopexit, !llvm.loop !34

.loopexit:                                        ; preds = %.thread83, %133, %.thread.us115, %110, %.thread.us104, %.thread83.us103, %87, %53, %49, %.thread.us, %.thread83.us, %57, %10
  %.073 = phi i1 [ true, %10 ], [ false, %53 ], [ false, %49 ], [ false, %.thread.us ], [ false, %.thread83.us ], [ true, %57 ], [ false, %.thread.us104 ], [ false, %.thread83.us103 ], [ true, %87 ], [ false, %.thread.us115 ], [ true, %110 ], [ false, %.thread83 ], [ true, %133 ]
  ret i1 %.073
}